target datalayout = "e-m:e-p270:32:32-p271:32:32-p272:64:64-i64:64-i128:128-f80:128-n8:16:32:64-S128"
target triple = "x86_64-pc-linux-gnu"

%struct.dynbuf = type { ptr, i64, i64, i64 }

@.str.16 = private unnamed_addr constant [10 x i8] c"() {%*]\\\22\00", align 1
@Curl_cstrdup = external global ptr, align 8
@.str.17 = private unnamed_addr constant [2 x i8] c"\22\00", align 1
@.str.18 = private unnamed_addr constant [2 x i8] c"\\\00", align 1

; Function Attrs: nounwind uwtable
define internal ptr @imap_atom(ptr noundef %0, i1 noundef zeroext %1) #0 {
  %3 = alloca ptr, align 8
  %4 = alloca ptr, align 8
  %5 = alloca i8, align 1
  %6 = alloca %struct.dynbuf, align 8
  %7 = alloca i64, align 8
  %8 = alloca i64, align 8
  %9 = alloca i32, align 4
  store ptr %0, ptr %4, align 8, !tbaa !123
  %10 = zext i1 %1 to i8
  store i8 %10, ptr %5, align 1, !tbaa !14
  call void @llvm.lifetime.start.p0(i64 32, ptr %6) #6
  call void @llvm.lifetime.start.p0(i64 8, ptr %7) #6
  call void @llvm.lifetime.start.p0(i64 8, ptr %8) #6
  %11 = load ptr, ptr %4, align 8, !tbaa !123
  %12 = icmp ne ptr %11, null
  br i1 %12, label %14, label %13

13:                                               ; preds = %2
  store ptr null, ptr %3, align 8
  store i32 1, ptr %9, align 4
  br label %69

14:                                               ; preds = %2
  %15 = load ptr, ptr %4, align 8, !tbaa !123
  %16 = call i64 @strlen(ptr noundef %15) #7
  store i64 %16, ptr %8, align 8, !tbaa !119
  %17 = load ptr, ptr %4, align 8, !tbaa !123
  %18 = call i64 @strcspn(ptr noundef %17, ptr noundef @.str.16) #7
  store i64 %18, ptr %7, align 8, !tbaa !119
  %19 = load i64, ptr %8, align 8, !tbaa !119
  %20 = load i64, ptr %7, align 8, !tbaa !119
  %21 = icmp eq i64 %19, %20
  br i1 %21, label %22, label %26

22:                                               ; preds = %14
  %23 = load ptr, ptr @Curl_cstrdup, align 8, !tbaa !91
  %24 = load ptr, ptr %4, align 8, !tbaa !123
  %25 = call ptr %23(ptr noundef %24)
  store ptr %25, ptr %3, align 8
  store i32 1, ptr %9, align 4
  br label %69

26:                                               ; preds = %14
  call void @Curl_dyn_init(ptr noundef %6, i64 noundef 2000)
  %27 = load i8, ptr %5, align 1, !tbaa !14, !range !111, !noundef !112
  %28 = trunc i8 %27 to i1
  br i1 %28, label %33, label %29

29:                                               ; preds = %26
  %30 = call i32 @Curl_dyn_addn(ptr noundef %6, ptr noundef @.str.17, i64 noundef 1)
  %31 = icmp ne i32 %30, 0
  br i1 %31, label %32, label %33

32:                                               ; preds = %29
  store ptr null, ptr %3, align 8
  store i32 1, ptr %9, align 4
  br label %69

33:                                               ; preds = %29, %26
  br label %34

34:                                               ; preds = %57, %33
  %35 = load ptr, ptr %4, align 8, !tbaa !123
  %36 = load i8, ptr %35, align 1, !tbaa !83
  %37 = icmp ne i8 %36, 0
  br i1 %37, label %38, label %60

38:                                               ; preds = %34
  %39 = load ptr, ptr %4, align 8, !tbaa !123
  %40 = load i8, ptr %39, align 1, !tbaa !83
  %41 = sext i8 %40 to i32
  %42 = icmp eq i32 %41, 92
  br i1 %42, label %48, label %43

43:                                               ; preds = %38
  %44 = load ptr, ptr %4, align 8, !tbaa !123
  %45 = load i8, ptr %44, align 1, !tbaa !83
  %46 = sext i8 %45 to i32
  %47 = icmp eq i32 %46, 34
  br i1 %47, label %48, label %52

48:                                               ; preds = %43, %38
  %49 = call i32 @Curl_dyn_addn(ptr noundef %6, ptr noundef @.str.18, i64 noundef 1)
  %50 = icmp ne i32 %49, 0
  br i1 %50, label %51, label %52

51:                                               ; preds = %48
  store ptr null, ptr %3, align 8
  store i32 1, ptr %9, align 4
  br label %69

52:                                               ; preds = %48, %43
  %53 = load ptr, ptr %4, align 8, !tbaa !123
  %54 = call i32 @Curl_dyn_addn(ptr noundef %6, ptr noundef %53, i64 noundef 1)
  %55 = icmp ne i32 %54, 0
  br i1 %55, label %56, label %57

56:                                               ; preds = %52
  store ptr null, ptr %3, align 8
  store i32 1, ptr %9, align 4
  br label %69

57:                                               ; preds = %52
  %58 = load ptr, ptr %4, align 8, !tbaa !123
  %59 = getelementptr inbounds nuw i8, ptr %58, i32 1
  store ptr %59, ptr %4, align 8, !tbaa !123
  br label %34, !llvm.loop !158

60:                                               ; preds = %34
  %61 = load i8, ptr %5, align 1, !tbaa !14, !range !111, !noundef !112
  %62 = trunc i8 %61 to i1
  br i1 %62, label %67, label %63

63:                                               ; preds = %60
  %64 = call i32 @Curl_dyn_addn(ptr noundef %6, ptr noundef @.str.17, i64 noundef 1)
  %65 = icmp ne i32 %64, 0
  br i1 %65, label %66, label %67

66:                                               ; preds = %63
  store ptr null, ptr %3, align 8
  store i32 1, ptr %9, align 4
  br label %69

67:                                               ; preds = %63, %60
  %68 = call ptr @Curl_dyn_ptr(ptr noundef %6)
  store ptr %68, ptr %3, align 8
  store i32 1, ptr %9, align 4
  br label %69

69:                                               ; preds = %67, %66, %56, %51, %32, %22, %13
  call void @llvm.lifetime.end.p0(i64 8, ptr %8) #6
  call void @llvm.lifetime.end.p0(i64 8, ptr %7) #6
  call void @llvm.lifetime.end.p0(i64 32, ptr %6) #6
  %70 = load ptr, ptr %3, align 8
  ret ptr %70
}