; Function Attrs: nounwind uwtable
define internal fastcc ptr @imap_atom(ptr noundef %0, i1 noundef zeroext %1) unnamed_addr #0 {
  %3 = alloca %struct.dynbuf, align 8
  call void @llvm.lifetime.start.p0(i64 32, ptr nonnull %3) #7
  %.not = icmp eq ptr %0, null
  br i1 %.not, label %.loopexit, label %4

4:                                                ; preds = %2
  %5 = tail call i64 @strlen(ptr noundef nonnull dereferenceable(1) %0) #8
  %6 = tail call i64 @strcspn(ptr noundef nonnull %0, ptr noundef nonnull @.str.16) #8
  %7 = icmp eq i64 %5, %6
  br i1 %7, label %8, label %11

8:                                                ; preds = %4
  %9 = load ptr, ptr @Curl_cstrdup, align 8, !tbaa !3
  %10 = tail call ptr %9(ptr noundef nonnull %0) #7
  br label %.loopexit

11:                                               ; preds = %4
  call void @Curl_dyn_init(ptr noundef nonnull %3, i64 noundef 2000) #7
  br i1 %1, label %.preheader, label %12

12:                                               ; preds = %11
  %13 = call i32 @Curl_dyn_addn(ptr noundef nonnull %3, ptr noundef nonnull @.str.17, i64 noundef 1) #7
  %.not17 = icmp eq i32 %13, 0
  br i1 %.not17, label %.preheader, label %.loopexit

.preheader:                                       ; preds = %12, %11
  br label %14

14:                                               ; preds = %.preheader, %18
  %.013 = phi ptr [ %20, %18 ], [ %0, %.preheader ]
  %15 = load i8, ptr %.013, align 1, !tbaa !7
  switch i8 %15, label %18 [
    i8 0, label %21
    i8 92, label %16
    i8 34, label %16
  ]

16:                                               ; preds = %14, %14
  %17 = call i32 @Curl_dyn_addn(ptr noundef nonnull %3, ptr noundef nonnull @.str.18, i64 noundef 1) #7
  %.not20 = icmp eq i32 %17, 0
  br i1 %.not20, label %18, label %.loopexit

18:                                               ; preds = %14, %16
  %19 = call i32 @Curl_dyn_addn(ptr noundef nonnull %3, ptr noundef nonnull %.013, i64 noundef 1) #7
  %.not21 = icmp eq i32 %19, 0
  %20 = getelementptr inbounds nuw i8, ptr %.013, i64 1
  br i1 %.not21, label %14, label %.loopexit, !llvm.loop !156

21:                                               ; preds = %14
  br i1 %1, label %24, label %22

22:                                               ; preds = %21
  %23 = call i32 @Curl_dyn_addn(ptr noundef nonnull %3, ptr noundef nonnull @.str.17, i64 noundef 1) #7
  %.not19 = icmp eq i32 %23, 0
  br i1 %.not19, label %24, label %.loopexit

24:                                               ; preds = %22, %21
  %25 = call ptr @Curl_dyn_ptr(ptr noundef nonnull %3) #7
  br label %.loopexit

.loopexit:                                        ; preds = %18, %16, %22, %12, %2, %24, %8
  %.0 = phi ptr [ %10, %8 ], [ %25, %24 ], [ null, %2 ], [ null, %12 ], [ null, %22 ], [ null, %16 ], [ null, %18 ]
  call void @llvm.lifetime.end.p0(i64 32, ptr nonnull %3) #7
  ret ptr %.0
}